Certificate:
    Data:
        Version: 3 (0x2)
        Serial Number: 1 (0x1)
        Signature Algorithm: sha256WithRSAEncryption
        Issuer: CN=devcert
        Validity
            Not Before: Apr 24 20:26:23 2020 GMT
            Not After : Jul 28 20:26:23 2022 GMT
        Subject: CN=localhost
        Subject Public Key Info:
            Public Key Algorithm: rsaEncryption
                RSA Public-Key: (2048 bit)
                Modulus:
                    00:a6:d8:81:d4:65:d3:2d:3d:4b:81:90:f6:6d:05:
                    02:e1:01:09:26:d2:cb:09:94:25:67:1b:7f:8a:70:
                    bb:52:99:ab:cc:1e:72:78:66:66:a3:51:3b:c0:20:
                    7a:ab:77:dc:55:03:a6:6c:4a:42:a2:ba:e2:ae:6d:
                    d2:47:4d:9f:16:68:1c:23:82:26:9d:42:fc:80:e7:
                    53:2b:02:95:c3:bf:65:bc:2e:d1:a3:7d:ee:8e:06:
                    3e:45:d9:6f:0c:f4:55:26:07:51:48:fe:28:a2:d8:
                    f1:2b:7d:2e:60:4b:a7:7c:a0:84:69:23:51:e9:06:
                    ed:7b:71:2b:04:46:22:9b:26:2d:ba:0e:a4:fe:95:
                    c8:22:d0:58:60:56:1e:46:cd:59:71:52:5b:39:76:
                    32:ad:b0:ca:ca:b4:3f:35:c7:9a:f0:0f:f2:e0:95:
                    37:41:a6:4a:d8:51:6e:07:13:d9:28:d4:e0:f6:e1:
                    9b:a5:46:06:53:79:84:89:b7:57:1c:67:e8:7e:ae:
                    62:e9:e4:1c:09:3d:ba:cc:36:c1:3f:b0:4f:e8:5d:
                    c7:db:b0:37:96:ea:da:52:7c:11:70:99:36:d8:3e:
                    e9:75:5a:05:2a:73:ba:ac:f3:ca:88:7f:5b:e4:66:
                    f2:4b:c9:ed:d9:bc:e7:ec:ac:fb:8b:f6:ac:ff:4d:
                    67:ab
                Exponent: 65537 (0x10001)
        X509v3 extensions:
            X509v3 Basic Constraints: critical
                CA:FALSE
            X509v3 Subject Key Identifier: 
                68:3C:E2:56:A6:23:8E:7F:95:81:5D:1B:37:9F:61:EA:4F:26:B6:84
            X509v3 Authority Key Identifier: 
                keyid:72:8E:86:31:F4:CC:6B:9C:C8:60:D5:20:8D:7D:67:D1:6E:C5:A9:C8
                DirName:/CN=devcert
                serial:2E:F6:5E:B3:6E:19:28:B9:6F:2E:0E:38:F4:FC:7B:3F:A3:36:C6:82

            X509v3 Key Usage: critical
                Digital Signature, Key Encipherment
            X509v3 Extended Key Usage: 
                TLS Web Server Authentication
            X509v3 Subject Alternative Name: 
                DNS:localhost, DNS:*.localhost
    Signature Algorithm: sha256WithRSAEncryption
         59:99:72:d7:77:fa:54:28:6c:72:02:f3:50:97:cd:03:86:ec:
         7c:fb:83:7d:23:07:f5:eb:c2:15:cb:b7:45:64:8a:58:f8:ad:
         99:27:90:5f:11:e3:c9:37:fa:2d:df:5d:a1:57:91:ff:10:66:
         71:e9:16:25:58:b2:3f:f5:eb:5c:12:2c:32:6d:15:be:4a:3d:
         c7:82:51:bf:04:93:37:56:20:e9:49:a5:5e:4c:ef:1a:5f:1c:
         43:59:92:ba:c7:7f:ed:ae:57:16:76:c8:ee:fa:93:4d:83:c6:
         82:93:97:b9:70:08:b1:ed:30:4d:87:57:27:d8:71:73:33:ed:
         37:9d:f9:62:b9:b9:70:b7:a2:bc:c8:ae:da:6d:b9:ef:59:77:
         54:ef:6a:2f:5f:5f:33:08:ea:6e:92:11:41:73:17:d3:c7:41:
         15:f4:ba:6a:55:c5:06:84:a7:11:ba:2c:83:7a:33:29:32:0b:
         1d:25:24:9f:5d:e5:73:9f:b1:b8:d4:16:70:e2:23:2c:08:52:
         8a:1d:35:a3:93:f1:d3:e8:27:26:53:fd:99:92:6e:e2:0f:cc:
         4a:65:ef:d4:92:25:a0:9b:a3:07:cc:c9:c4:b4:de:2d:a0:67:
         55:7f:12:21:38:7d:36:d8:2f:13:5e:5b:4a:58:15:07:2f:29:
         25:81:a6:a3
-----BEGIN CERTIFICATE-----
MIIDaTCCAlGgAwIBAgIBATANBgkqhkiG9w0BAQsFADASMRAwDgYDVQQDDAdkZXZj
ZXJ0MB4XDTIwMDQyNDIwMjYyM1oXDTIyMDcyODIwMjYyM1owFDESMBAGA1UEAwwJ
bG9jYWxob3N0MIIBIjANBgkqhkiG9w0BAQEFAAOCAQ8AMIIBCgKCAQEAptiB1GXT
LT1LgZD2bQUC4QEJJtLLCZQlZxt/inC7UpmrzB5yeGZmo1E7wCB6q3fcVQOmbEpC
orrirm3SR02fFmgcI4ImnUL8gOdTKwKVw79lvC7Ro33ujgY+RdlvDPRVJgdRSP4o
otjxK30uYEunfKCEaSNR6Qbte3ErBEYimyYtug6k/pXIItBYYFYeRs1ZcVJbOXYy
rbDKyrQ/Ncea8A/y4JU3QaZK2FFuBxPZKNTg9uGbpUYGU3mEibdXHGfofq5i6eQc
CT26zDbBP7BP6F3H27A3luraUnwRcJk22D7pdVoFKnO6rPPKiH9b5GbyS8nt2bzn
7Kz7i/as/01nqwIDAQABo4HHMIHEMAwGA1UdEwEB/wQCMAAwHQYDVR0OBBYEFGg8
4lamI45/lYFdGzefYepPJraEME0GA1UdIwRGMESAFHKOhjH0zGucyGDVII19Z9Fu
xanIoRakFDASMRAwDgYDVQQDDAdkZXZjZXJ0ghQu9l6zbhkouW8uDjj0/Hs/ozbG
gjAOBgNVHQ8BAf8EBAMCBaAwEwYDVR0lBAwwCgYIKwYBBQUHAwEwIQYDVR0RBBow
GIIJbG9jYWxob3N0ggsqLmxvY2FsaG9zdDANBgkqhkiG9w0BAQsFAAOCAQEAWZly
13f6VChscgLzUJfNA4bsfPuDfSMH9evCFcu3RWSKWPitmSeQXxHjyTf6Ld9doVeR
/xBmcekWJViyP/XrXBIsMm0Vvko9x4JRvwSTN1Yg6UmlXkzvGl8cQ1mSusd/7a5X
FnbI7vqTTYPGgpOXuXAIse0wTYdXJ9hxczPtN535Yrm5cLeivMiu2m2571l3VO9q
L19fMwjqbpIRQXMX08dBFfS6alXFBoSnEbosg3ozKTILHSUkn13lc5+xuNQWcOIj
LAhSih01o5Px0+gnJlP9mZJu4g/MSmXv1JIloJujB8zJxLTeLaBnVX8SITh9Ntgv
E15bSlgVBy8pJYGmow==
-----END CERTIFICATE-----
